target datalayout = "e-m:e-p270:32:32-p271:32:32-p272:64:64-i64:64-i128:128-f80:128-n8:16:32:64-S128"
target triple = "x86_64-pc-linux-gnu"

%struct.ident_t = type { i32, i32, i32, i32, ptr }
%struct.t_mdatoms = type { float, float, float, i32, i32, i8, i8, i8, i32, i32, i32, i32, i8, %"class.std::vector.2", %"class.std::vector.2", %"class.std::vector.2", %"class.gmx::PaddedVector.4", %"class.std::vector.9", %"class.gmx::ArrayRef", %"class.gmx::ArrayRef", %"class.std::vector.2", %"class.std::vector.2", %"class.std::vector.2", %"class.std::vector.2", %"class.std::vector.2", %"class.std::vector.2", %"class.std::vector.14", %"class.std::vector.19", %"class.std::vector.19", %"class.std::vector.24", %"class.std::vector.29", %"class.std::vector.29", %"class.std::vector.29", %"class.std::vector.29", %"class.std::vector.29", %"class.std::vector.29", %"class.std::vector.29", %"class.std::vector.29", i32, float }
%"class.gmx::PaddedVector.4" = type { %"class.std::vector.5", %"class.__gnu_cxx::__normal_iterator.8" }
%"class.std::vector.5" = type { %"struct.std::_Vector_base.6" }
%"struct.std::_Vector_base.6" = type { %"struct.std::_Vector_base<float, gmx::Allocator<float, gmx::AlignedAllocationPolicy>>::_Vector_impl" }
%"struct.std::_Vector_base<float, gmx::Allocator<float, gmx::AlignedAllocationPolicy>>::_Vector_impl" = type { %"struct.std::_Vector_base<float, gmx::Allocator<float, gmx::AlignedAllocationPolicy>>::_Vector_impl_data" }
%"struct.std::_Vector_base<float, gmx::Allocator<float, gmx::AlignedAllocationPolicy>>::_Vector_impl_data" = type { ptr, ptr, ptr }
%"class.__gnu_cxx::__normal_iterator.8" = type { ptr }
%"class.std::vector.9" = type { %"struct.std::_Vector_base.10" }
%"struct.std::_Vector_base.10" = type { %"struct.std::_Vector_base<gmx::BasicVector<float>, std::allocator<gmx::BasicVector<float>>>::_Vector_impl" }
%"struct.std::_Vector_base<gmx::BasicVector<float>, std::allocator<gmx::BasicVector<float>>>::_Vector_impl" = type { %"struct.std::_Vector_base<gmx::BasicVector<float>, std::allocator<gmx::BasicVector<float>>>::_Vector_impl_data" }
%"struct.std::_Vector_base<gmx::BasicVector<float>, std::allocator<gmx::BasicVector<float>>>::_Vector_impl_data" = type { ptr, ptr, ptr }
%"class.gmx::ArrayRef" = type { %"struct.gmx::ArrayRefIter", %"struct.gmx::ArrayRefIter" }
%"struct.gmx::ArrayRefIter" = type { ptr }
%"class.std::vector.2" = type { %"struct.std::_Vector_base.3" }
%"struct.std::_Vector_base.3" = type { %"struct.std::_Vector_base<float, std::allocator<float>>::_Vector_impl" }
%"struct.std::_Vector_base<float, std::allocator<float>>::_Vector_impl" = type { %"struct.std::_Vector_base<float, std::allocator<float>>::_Vector_impl_data" }
%"struct.std::_Vector_base<float, std::allocator<float>>::_Vector_impl_data" = type { ptr, ptr, ptr }
%"class.std::vector.14" = type { %"struct.std::_Vector_base.15" }
%"struct.std::_Vector_base.15" = type { %"struct.std::_Vector_base<gmx::BoolType, std::allocator<gmx::BoolType>>::_Vector_impl" }
%"struct.std::_Vector_base<gmx::BoolType, std::allocator<gmx::BoolType>>::_Vector_impl" = type { %"struct.std::_Vector_base<gmx::BoolType, std::allocator<gmx::BoolType>>::_Vector_impl_data" }
%"struct.std::_Vector_base<gmx::BoolType, std::allocator<gmx::BoolType>>::_Vector_impl_data" = type { ptr, ptr, ptr }
%"class.std::vector.19" = type { %"struct.std::_Vector_base.20" }
%"struct.std::_Vector_base.20" = type { %"struct.std::_Vector_base<int, std::allocator<int>>::_Vector_impl" }
%"struct.std::_Vector_base<int, std::allocator<int>>::_Vector_impl" = type { %"struct.std::_Vector_base<int, std::allocator<int>>::_Vector_impl_data" }
%"struct.std::_Vector_base<int, std::allocator<int>>::_Vector_impl_data" = type { ptr, ptr, ptr }
%"class.std::vector.24" = type { %"struct.std::_Vector_base.25" }
%"struct.std::_Vector_base.25" = type { %"struct.std::_Vector_base<ParticleType, std::allocator<ParticleType>>::_Vector_impl" }
%"struct.std::_Vector_base<ParticleType, std::allocator<ParticleType>>::_Vector_impl" = type { %"struct.std::_Vector_base<ParticleType, std::allocator<ParticleType>>::_Vector_impl_data" }
%"struct.std::_Vector_base<ParticleType, std::allocator<ParticleType>>::_Vector_impl_data" = type { ptr, ptr, ptr }
%"class.std::vector.29" = type { %"struct.std::_Vector_base.30" }
%"struct.std::_Vector_base.30" = type { %"struct.std::_Vector_base<unsigned short, std::allocator<unsigned short>>::_Vector_impl" }
%"struct.std::_Vector_base<unsigned short, std::allocator<unsigned short>>::_Vector_impl" = type { %"struct.std::_Vector_base<unsigned short, std::allocator<unsigned short>>::_Vector_impl_data" }
%"struct.std::_Vector_base<unsigned short, std::allocator<unsigned short>>::_Vector_impl_data" = type { ptr, ptr, ptr }
%"class.gmx::BasicVector" = type { [3 x float] }
%"struct.gmx::BoolType" = type { i8 }

@1 = private unnamed_addr constant %struct.ident_t { i32 0, i32 514, i32 0, i32 22, ptr @0 }, align 8

; Function Attrs: mustprogress nounwind uwtable
define linkonce_odr noundef nonnull align 4 dereferenceable(4) ptr @_ZNSt6vectorIfN3gmx9AllocatorIfNS0_23AlignedAllocationPolicyEEEEixEm(ptr noundef nonnull align 8 dereferenceable(24) %0, i64 noundef %1) #1 comdat align 2 {
  %3 = alloca ptr, align 8
  %4 = alloca i64, align 8
  store ptr %0, ptr %3, align 8, !tbaa !145
  store i64 %1, ptr %4, align 8, !tbaa !58
  %5 = load ptr, ptr %3, align 8
  %6 = getelementptr inbounds nuw %"struct.std::_Vector_base.6", ptr %5, i32 0, i32 0
  %7 = getelementptr inbounds nuw %"struct.std::_Vector_base<float, gmx::Allocator<float, gmx::AlignedAllocationPolicy>>::_Vector_impl_data", ptr %6, i32 0, i32 0
  %8 = load ptr, ptr %7, align 8, !tbaa !147
  %9 = load i64, ptr %4, align 8, !tbaa !58
  %10 = getelementptr inbounds nuw float, ptr %8, i64 %9
  ret ptr %10
}

; Function Attrs: noinline noreturn nounwind uwtable
define linkonce_odr hidden void @__clang_call_terminate(ptr noundef %0) #4 comdat {
  %2 = call ptr @__cxa_begin_catch(ptr %0) #14
  call void @_ZSt9terminatev() #19
  unreachable
}

; Function Attrs: mustprogress nounwind uwtable
define linkonce_odr noundef nonnull align 4 dereferenceable(4) ptr @_ZN3gmx11BasicVectorIfEixEi(ptr noundef nonnull align 4 dereferenceable(12) %0, i32 noundef %1) #1 comdat align 2 {
  %3 = alloca ptr, align 8
  %4 = alloca i32, align 4
  store ptr %0, ptr %3, align 8, !tbaa !137
  store i32 %1, ptr %4, align 4, !tbaa !156
  %5 = load ptr, ptr %3, align 8
  %6 = getelementptr inbounds nuw %"class.gmx::BasicVector", ptr %5, i32 0, i32 0
  %7 = load i32, ptr %4, align 4, !tbaa !156
  %8 = sext i32 %7 to i64
  %9 = getelementptr inbounds [3 x float], ptr %6, i64 0, i64 %8
  ret ptr %9
}

; Function Attrs: mustprogress nounwind uwtable
define linkonce_odr noundef nonnull align 4 dereferenceable(12) ptr @_ZNSt6vectorIN3gmx11BasicVectorIfEESaIS2_EEixEm(ptr noundef nonnull align 8 dereferenceable(24) %0, i64 noundef %1) #1 comdat align 2 {
  %3 = alloca ptr, align 8
  %4 = alloca i64, align 8
  store ptr %0, ptr %3, align 8, !tbaa !90
  store i64 %1, ptr %4, align 8, !tbaa !58
  %5 = load ptr, ptr %3, align 8
  %6 = getelementptr inbounds nuw %"struct.std::_Vector_base.10", ptr %5, i32 0, i32 0
  %7 = getelementptr inbounds nuw %"struct.std::_Vector_base<gmx::BasicVector<float>, std::allocator<gmx::BasicVector<float>>>::_Vector_impl_data", ptr %6, i32 0, i32 0
  %8 = load ptr, ptr %7, align 8, !tbaa !92
  %9 = load i64, ptr %4, align 8, !tbaa !58
  %10 = getelementptr inbounds nuw %"class.gmx::BasicVector", ptr %8, i64 %9
  ret ptr %10
}

; Function Attrs: mustprogress nounwind uwtable
define linkonce_odr noundef nonnull align 4 dereferenceable(4) ptr @_ZN3gmx12PaddedVectorIfNS_9AllocatorIfNS_23AlignedAllocationPolicyEEEEixEi(ptr noundef nonnull align 8 dereferenceable(32) %0, i32 noundef %1) #1 comdat align 2 {
  %3 = alloca ptr, align 8
  %4 = alloca i32, align 4
  store ptr %0, ptr %3, align 8, !tbaa !96
  store i32 %1, ptr %4, align 4, !tbaa !156
  %5 = load ptr, ptr %3, align 8
  %6 = getelementptr inbounds nuw %"class.gmx::PaddedVector.4", ptr %5, i32 0, i32 0
  %7 = load i32, ptr %4, align 4, !tbaa !156
  %8 = sext i32 %7 to i64
  %9 = call noundef nonnull align 4 dereferenceable(4) ptr @_ZNSt6vectorIfN3gmx9AllocatorIfNS0_23AlignedAllocationPolicyEEEEixEm(ptr noundef nonnull align 8 dereferenceable(24) %6, i64 noundef %8) #14
  ret ptr %9
}

; Function Attrs: mustprogress nounwind uwtable
define linkonce_odr noundef nonnull align 4 dereferenceable(4) ptr @_ZNSt6vectorIfSaIfEEixEm(ptr noundef nonnull align 8 dereferenceable(24) %0, i64 noundef %1) #1 comdat align 2 {
  %3 = alloca ptr, align 8
  %4 = alloca i64, align 8
  store ptr %0, ptr %3, align 8, !tbaa !85
  store i64 %1, ptr %4, align 8, !tbaa !58
  %5 = load ptr, ptr %3, align 8
  %6 = getelementptr inbounds nuw %"struct.std::_Vector_base.3", ptr %5, i32 0, i32 0
  %7 = getelementptr inbounds nuw %"struct.std::_Vector_base<float, std::allocator<float>>::_Vector_impl_data", ptr %6, i32 0, i32 0
  %8 = load ptr, ptr %7, align 8, !tbaa !87
  %9 = load i64, ptr %4, align 8, !tbaa !58
  %10 = getelementptr inbounds nuw float, ptr %8, i64 %9
  ret ptr %10
}

; Function Attrs: mustprogress nounwind uwtable
define linkonce_odr noundef zeroext i1 @_ZNK3gmx8BoolTypecvbEv(ptr noundef nonnull align 1 dereferenceable(1) %0) #1 comdat align 2 {
  %2 = alloca ptr, align 8
  store ptr %0, ptr %2, align 8, !tbaa !122
  %3 = load ptr, ptr %2, align 8
  %4 = getelementptr inbounds nuw %"struct.gmx::BoolType", ptr %3, i32 0, i32 0
  %5 = load i8, ptr %4, align 1, !tbaa !540, !range !205, !noundef !206
  %6 = trunc i8 %5 to i1
  ret i1 %6
}

; Function Attrs: mustprogress nounwind uwtable
define linkonce_odr noundef nonnull align 1 dereferenceable(1) ptr @_ZNSt6vectorIN3gmx8BoolTypeESaIS1_EEixEm(ptr noundef nonnull align 8 dereferenceable(24) %0, i64 noundef %1) #1 comdat align 2 {
  %3 = alloca ptr, align 8
  %4 = alloca i64, align 8
  store ptr %0, ptr %3, align 8, !tbaa !79
  store i64 %1, ptr %4, align 8, !tbaa !58
  %5 = load ptr, ptr %3, align 8
  %6 = getelementptr inbounds nuw %"struct.std::_Vector_base.15", ptr %5, i32 0, i32 0
  %7 = getelementptr inbounds nuw %"struct.std::_Vector_base<gmx::BoolType, std::allocator<gmx::BoolType>>::_Vector_impl_data", ptr %6, i32 0, i32 0
  %8 = load ptr, ptr %7, align 8, !tbaa !81
  %9 = load i64, ptr %4, align 8, !tbaa !58
  %10 = getelementptr inbounds nuw %"struct.gmx::BoolType", ptr %8, i64 %9
  ret ptr %10
}

; Function Attrs: alwaysinline norecurse nounwind uwtable
define internal void @_Z14update_mdatomsP9t_mdatomsf.omp_outlined(ptr noalias noundef %0, ptr noalias noundef %1, ptr noundef nonnull align 8 dereferenceable(8) %2, ptr noundef nonnull align 4 dereferenceable(4) %3, ptr noundef nonnull align 4 dereferenceable(4) %4) #13 personality ptr @__gxx_personality_v0 {
  %6 = alloca ptr, align 8
  %7 = alloca ptr, align 8
  %8 = alloca ptr, align 8
  %9 = alloca ptr, align 8
  %10 = alloca ptr, align 8
  %11 = alloca i32, align 4
  %12 = alloca i32, align 4
  %13 = alloca i32, align 4
  %14 = alloca i32, align 4
  %15 = alloca i32, align 4
  %16 = alloca i32, align 4
  %17 = alloca i32, align 4
  %18 = alloca i32, align 4
  %19 = alloca i32, align 4
  %20 = alloca i32, align 4
  store ptr %0, ptr %6, align 8, !tbaa !114
  store ptr %1, ptr %7, align 8, !tbaa !114
  store ptr %2, ptr %8, align 8, !tbaa !15
  store ptr %3, ptr %9, align 8, !tbaa !52
  store ptr %4, ptr %10, align 8, !tbaa !52
  %21 = load ptr, ptr %8, align 8, !tbaa !15
  %22 = load ptr, ptr %9, align 8, !tbaa !52
  %23 = load ptr, ptr %10, align 8, !tbaa !52
  call void @llvm.lifetime.start.p0(i64 4, ptr %11) #14
  call void @llvm.lifetime.start.p0(i64 4, ptr %12) #14
  %24 = load ptr, ptr %21, align 8, !tbaa !18
  %25 = getelementptr inbounds nuw %struct.t_mdatoms, ptr %24, i32 0, i32 3
  %26 = load i32, ptr %25, align 4, !tbaa !464
  store i32 %26, ptr %12, align 4, !tbaa !156
  call void @llvm.lifetime.start.p0(i64 4, ptr %13) #14
  %27 = load i32, ptr %12, align 4, !tbaa !156
  %28 = sub nsw i32 %27, 0
  %29 = sdiv i32 %28, 1
  %30 = sub nsw i32 %29, 1
  store i32 %30, ptr %13, align 4, !tbaa !156
  call void @llvm.lifetime.start.p0(i64 4, ptr %14) #14
  store i32 0, ptr %14, align 4, !tbaa !156
  call void @llvm.lifetime.end.p0(i64 4, ptr %14) #14
  %31 = load i32, ptr %12, align 4, !tbaa !156
  %32 = icmp slt i32 0, %31
  br i1 %32, label %33, label %149

33:                                               ; preds = %5
  call void @llvm.lifetime.start.p0(i64 4, ptr %15) #14
  store i32 0, ptr %15, align 4, !tbaa !156
  call void @llvm.lifetime.start.p0(i64 4, ptr %16) #14
  %34 = load i32, ptr %13, align 4, !tbaa !156
  store i32 %34, ptr %16, align 4, !tbaa !156
  call void @llvm.lifetime.start.p0(i64 4, ptr %17) #14
  store i32 1, ptr %17, align 4, !tbaa !156
  call void @llvm.lifetime.start.p0(i64 4, ptr %18) #14
  store i32 0, ptr %18, align 4, !tbaa !156
  call void @llvm.lifetime.start.p0(i64 4, ptr %19) #14
  %35 = load ptr, ptr %6, align 8
  %36 = load i32, ptr %35, align 4, !tbaa !156
  call void @__kmpc_for_static_init_4(ptr @1, i32 %36, i32 34, ptr %18, ptr %15, ptr %16, ptr %17, i32 1, i32 1)
  %37 = load i32, ptr %16, align 4, !tbaa !156
  %38 = load i32, ptr %13, align 4, !tbaa !156
  %39 = icmp sgt i32 %37, %38
  br i1 %39, label %40, label %42

40:                                               ; preds = %33
  %41 = load i32, ptr %13, align 4, !tbaa !156
  br label %44

42:                                               ; preds = %33
  %43 = load i32, ptr %16, align 4, !tbaa !156
  br label %44

44:                                               ; preds = %42, %40
  %45 = phi i32 [ %41, %40 ], [ %43, %42 ]
  store i32 %45, ptr %16, align 4, !tbaa !156
  %46 = load i32, ptr %15, align 4, !tbaa !156
  store i32 %46, ptr %11, align 4, !tbaa !156
  br label %47

47:                                               ; preds = %142, %44
  %48 = load i32, ptr %11, align 4, !tbaa !156
  %49 = load i32, ptr %16, align 4, !tbaa !156
  %50 = icmp sle i32 %48, %49
  br i1 %50, label %52, label %51

51:                                               ; preds = %47
  br label %145

52:                                               ; preds = %47
  %53 = load i32, ptr %11, align 4, !tbaa !156
  %54 = mul nsw i32 %53, 1
  %55 = add nsw i32 0, %54
  store i32 %55, ptr %19, align 4, !tbaa !156
  %56 = load ptr, ptr %21, align 8, !tbaa !18
  %57 = getelementptr inbounds nuw %struct.t_mdatoms, ptr %56, i32 0, i32 26
  %58 = load i32, ptr %19, align 4, !tbaa !156
  %59 = sext i32 %58 to i64
  %60 = call noundef nonnull align 1 dereferenceable(1) ptr @_ZNSt6vectorIN3gmx8BoolTypeESaIS1_EEixEm(ptr noundef nonnull align 8 dereferenceable(24) %57, i64 noundef %59) #14
  %61 = invoke noundef zeroext i1 @_ZNK3gmx8BoolTypecvbEv(ptr noundef nonnull align 1 dereferenceable(1) %60)
          to label %62 unwind label %150

62:                                               ; preds = %52
  br i1 %61, label %63, label %140

63:                                               ; preds = %62
  %64 = load float, ptr %22, align 4, !tbaa !161
  %65 = load ptr, ptr %21, align 8, !tbaa !18
  %66 = getelementptr inbounds nuw %struct.t_mdatoms, ptr %65, i32 0, i32 13
  %67 = load i32, ptr %19, align 4, !tbaa !156
  %68 = sext i32 %67 to i64
  %69 = call noundef nonnull align 4 dereferenceable(4) ptr @_ZNSt6vectorIfSaIfEEixEm(ptr noundef nonnull align 8 dereferenceable(24) %66, i64 noundef %68) #14
  %70 = load float, ptr %69, align 4, !tbaa !161
  %71 = load float, ptr %23, align 4, !tbaa !161
  %72 = load ptr, ptr %21, align 8, !tbaa !18
  %73 = getelementptr inbounds nuw %struct.t_mdatoms, ptr %72, i32 0, i32 14
  %74 = load i32, ptr %19, align 4, !tbaa !156
  %75 = sext i32 %74 to i64
  %76 = call noundef nonnull align 4 dereferenceable(4) ptr @_ZNSt6vectorIfSaIfEEixEm(ptr noundef nonnull align 8 dereferenceable(24) %73, i64 noundef %75) #14
  %77 = load float, ptr %76, align 4, !tbaa !161
  %78 = fmul float %71, %77
  %79 = call float @llvm.fmuladd.f32(float %64, float %70, float %78)
  %80 = load ptr, ptr %21, align 8, !tbaa !18
  %81 = getelementptr inbounds nuw %struct.t_mdatoms, ptr %80, i32 0, i32 15
  %82 = load i32, ptr %19, align 4, !tbaa !156
  %83 = sext i32 %82 to i64
  %84 = call noundef nonnull align 4 dereferenceable(4) ptr @_ZNSt6vectorIfSaIfEEixEm(ptr noundef nonnull align 8 dereferenceable(24) %81, i64 noundef %83) #14
  store float %79, ptr %84, align 4, !tbaa !161
  %85 = load ptr, ptr %21, align 8, !tbaa !18
  %86 = getelementptr inbounds nuw %struct.t_mdatoms, ptr %85, i32 0, i32 16
  %87 = load i32, ptr %19, align 4, !tbaa !156
  %88 = call noundef nonnull align 4 dereferenceable(4) ptr @_ZN3gmx12PaddedVectorIfNS_9AllocatorIfNS_23AlignedAllocationPolicyEEEEixEi(ptr noundef nonnull align 8 dereferenceable(32) %86, i32 noundef %87)
  %89 = load float, ptr %88, align 4, !tbaa !161
  %90 = fpext float %89 to double
  %91 = fcmp ogt double %90, 0x39B64F86CB9CEFB1
  br i1 %91, label %92, label %139

92:                                               ; preds = %63
  %93 = load ptr, ptr %21, align 8, !tbaa !18
  %94 = getelementptr inbounds nuw %struct.t_mdatoms, ptr %93, i32 0, i32 15
  %95 = load i32, ptr %19, align 4, !tbaa !156
  %96 = sext i32 %95 to i64
  %97 = call noundef nonnull align 4 dereferenceable(4) ptr @_ZNSt6vectorIfSaIfEEixEm(ptr noundef nonnull align 8 dereferenceable(24) %94, i64 noundef %96) #14
  %98 = load float, ptr %97, align 4, !tbaa !161
  %99 = fpext float %98 to double
  %100 = fdiv double 1.000000e+00, %99
  %101 = fptrunc double %100 to float
  %102 = load ptr, ptr %21, align 8, !tbaa !18
  %103 = getelementptr inbounds nuw %struct.t_mdatoms, ptr %102, i32 0, i32 16
  %104 = load i32, ptr %19, align 4, !tbaa !156
  %105 = call noundef nonnull align 4 dereferenceable(4) ptr @_ZN3gmx12PaddedVectorIfNS_9AllocatorIfNS_23AlignedAllocationPolicyEEEEixEi(ptr noundef nonnull align 8 dereferenceable(32) %103, i32 noundef %104)
  store float %101, ptr %105, align 4, !tbaa !161
  call void @llvm.lifetime.start.p0(i64 4, ptr %20) #14
  store i32 0, ptr %20, align 4, !tbaa !156
  br label %106

106:                                              ; preds = %135, %92
  %107 = load i32, ptr %20, align 4, !tbaa !156
  %108 = icmp slt i32 %107, 3
  br i1 %108, label %110, label %109

109:                                              ; preds = %106
  call void @llvm.lifetime.end.p0(i64 4, ptr %20) #14
  br label %138

110:                                              ; preds = %106
  %111 = load ptr, ptr %21, align 8, !tbaa !18
  %112 = getelementptr inbounds nuw %struct.t_mdatoms, ptr %111, i32 0, i32 17
  %113 = load i32, ptr %19, align 4, !tbaa !156
  %114 = sext i32 %113 to i64
  %115 = call noundef nonnull align 4 dereferenceable(12) ptr @_ZNSt6vectorIN3gmx11BasicVectorIfEESaIS2_EEixEm(ptr noundef nonnull align 8 dereferenceable(24) %112, i64 noundef %114) #14
  %116 = load i32, ptr %20, align 4, !tbaa !156
  %117 = call noundef nonnull align 4 dereferenceable(4) ptr @_ZN3gmx11BasicVectorIfEixEi(ptr noundef nonnull align 4 dereferenceable(12) %115, i32 noundef %116)
  %118 = load float, ptr %117, align 4, !tbaa !161
  %119 = fpext float %118 to double
  %120 = fcmp ogt double %119, 0x39B64F86CB9CEFB1
  br i1 %120, label %121, label %134

121:                                              ; preds = %110
  %122 = load ptr, ptr %21, align 8, !tbaa !18
  %123 = getelementptr inbounds nuw %struct.t_mdatoms, ptr %122, i32 0, i32 16
  %124 = load i32, ptr %19, align 4, !tbaa !156
  %125 = call noundef nonnull align 4 dereferenceable(4) ptr @_ZN3gmx12PaddedVectorIfNS_9AllocatorIfNS_23AlignedAllocationPolicyEEEEixEi(ptr noundef nonnull align 8 dereferenceable(32) %123, i32 noundef %124)
  %126 = load float, ptr %125, align 4, !tbaa !161
  %127 = load ptr, ptr %21, align 8, !tbaa !18
  %128 = getelementptr inbounds nuw %struct.t_mdatoms, ptr %127, i32 0, i32 17
  %129 = load i32, ptr %19, align 4, !tbaa !156
  %130 = sext i32 %129 to i64
  %131 = call noundef nonnull align 4 dereferenceable(12) ptr @_ZNSt6vectorIN3gmx11BasicVectorIfEESaIS2_EEixEm(ptr noundef nonnull align 8 dereferenceable(24) %128, i64 noundef %130) #14
  %132 = load i32, ptr %20, align 4, !tbaa !156
  %133 = call noundef nonnull align 4 dereferenceable(4) ptr @_ZN3gmx11BasicVectorIfEixEi(ptr noundef nonnull align 4 dereferenceable(12) %131, i32 noundef %132)
  store float %126, ptr %133, align 4, !tbaa !161
  br label %134

134:                                              ; preds = %121, %110
  br label %135

135:                                              ; preds = %134
  %136 = load i32, ptr %20, align 4, !tbaa !156
  %137 = add nsw i32 %136, 1
  store i32 %137, ptr %20, align 4, !tbaa !156
  br label %106, !llvm.loop !575

138:                                              ; preds = %109
  br label %139

139:                                              ; preds = %138, %63
  br label %140

140:                                              ; preds = %139, %62
  br label %141

141:                                              ; preds = %140
  br label %142

142:                                              ; preds = %141
  %143 = load i32, ptr %11, align 4, !tbaa !156
  %144 = add nsw i32 %143, 1
  store i32 %144, ptr %11, align 4, !tbaa !156
  br label %47

145:                                              ; preds = %51
  br label %146

146:                                              ; preds = %145
  %147 = load ptr, ptr %6, align 8
  %148 = load i32, ptr %147, align 4, !tbaa !156
  call void @__kmpc_for_static_fini(ptr @1, i32 %148)
  call void @llvm.lifetime.end.p0(i64 4, ptr %19) #14
  call void @llvm.lifetime.end.p0(i64 4, ptr %18) #14
  call void @llvm.lifetime.end.p0(i64 4, ptr %17) #14
  call void @llvm.lifetime.end.p0(i64 4, ptr %16) #14
  call void @llvm.lifetime.end.p0(i64 4, ptr %15) #14
  br label %149

149:                                              ; preds = %146, %5
  call void @llvm.lifetime.end.p0(i64 4, ptr %13) #14
  call void @llvm.lifetime.end.p0(i64 4, ptr %12) #14
  call void @llvm.lifetime.end.p0(i64 4, ptr %11) #14
  ret void

150:                                              ; preds = %52
  %151 = landingpad { ptr, i32 }
          catch ptr null
  %152 = extractvalue { ptr, i32 } %151, 0
  call void @__clang_call_terminate(ptr %152) #19
  unreachable
}