; Function Attrs: alwaysinline norecurse nounwind uwtable
define internal void @_Z14update_mdatomsP9t_mdatomsf.omp_outlined(ptr noalias noundef readonly captures(none) %0, ptr noalias readnone captures(none) %1, ptr noundef nonnull readonly align 8 captures(none) dereferenceable(8) %2, ptr noundef nonnull readonly align 4 captures(none) dereferenceable(4) %3, ptr noundef nonnull readonly align 4 captures(none) dereferenceable(4) %4) #15 personality ptr @__gxx_personality_v0 {
  %6 = alloca i32, align 4
  %7 = alloca i32, align 4
  %8 = alloca i32, align 4
  %9 = alloca i32, align 4
  %10 = load ptr, ptr %2, align 8, !tbaa !10
  %11 = getelementptr inbounds nuw i8, ptr %10, i64 12
  %12 = load i32, ptr %11, align 4, !tbaa !267
  %13 = icmp sgt i32 %12, 0
  br i1 %13, label %14, label %63

14:                                               ; preds = %5
  %15 = add nsw i32 %12, -1
  call void @llvm.lifetime.start.p0(i64 4, ptr nonnull %6) #16
  store i32 0, ptr %6, align 4, !tbaa !149
  call void @llvm.lifetime.start.p0(i64 4, ptr nonnull %7) #16
  store i32 %15, ptr %7, align 4, !tbaa !149
  call void @llvm.lifetime.start.p0(i64 4, ptr nonnull %8) #16
  store i32 1, ptr %8, align 4, !tbaa !149
  call void @llvm.lifetime.start.p0(i64 4, ptr nonnull %9) #16
  store i32 0, ptr %9, align 4, !tbaa !149
  %16 = load i32, ptr %0, align 4, !tbaa !149
  call void @__kmpc_for_static_init_4(ptr nonnull @1, i32 %16, i32 34, ptr nonnull %9, ptr nonnull %6, ptr nonnull %7, ptr nonnull %8, i32 1, i32 1)
  %17 = load i32, ptr %7, align 4, !tbaa !149
  %18 = call i32 @llvm.smin.i32(i32 %17, i32 %15)
  store i32 %18, ptr %7, align 4, !tbaa !149
  %19 = load i32, ptr %6, align 4, !tbaa !149
  %.not28 = icmp sgt i32 %19, %18
  br i1 %.not28, label %._crit_edge, label %.lr.ph

.lr.ph:                                           ; preds = %14
  %20 = load ptr, ptr %2, align 8, !tbaa !10
  %21 = getelementptr inbounds nuw i8, ptr %20, i64 352
  %22 = load ptr, ptr %21, align 8, !tbaa !23
  %23 = getelementptr inbounds nuw i8, ptr %20, i64 48
  %24 = getelementptr inbounds nuw i8, ptr %20, i64 72
  %25 = getelementptr inbounds nuw i8, ptr %20, i64 96
  %26 = getelementptr inbounds nuw i8, ptr %20, i64 120
  %27 = getelementptr inbounds nuw i8, ptr %20, i64 152
  %28 = sext i32 %19 to i64
  %29 = add nsw i32 %18, 1
  br label %30

30:                                               ; preds = %.lr.ph, %.loopexit
  %indvars.iv31 = phi i64 [ %28, %.lr.ph ], [ %indvars.iv.next32, %.loopexit ]
  %31 = getelementptr inbounds nuw %"struct.gmx::BoolType", ptr %22, i64 %indvars.iv31
  %32 = load i8, ptr %31, align 1, !tbaa !293, !range !270, !noundef !271
  %33 = trunc nuw i8 %32 to i1
  br i1 %33, label %34, label %.loopexit

34:                                               ; preds = %30
  %35 = load float, ptr %3, align 4, !tbaa !38
  %36 = load ptr, ptr %23, align 8, !tbaa !27
  %37 = getelementptr inbounds nuw float, ptr %36, i64 %indvars.iv31
  %38 = load float, ptr %37, align 4, !tbaa !38
  %39 = load float, ptr %4, align 4, !tbaa !38
  %40 = load ptr, ptr %24, align 8, !tbaa !27
  %41 = getelementptr inbounds nuw float, ptr %40, i64 %indvars.iv31
  %42 = load float, ptr %41, align 4, !tbaa !38
  %43 = fmul float %39, %42
  %44 = call float @llvm.fmuladd.f32(float %35, float %38, float %43)
  %45 = load ptr, ptr %25, align 8, !tbaa !27
  %46 = getelementptr inbounds nuw float, ptr %45, i64 %indvars.iv31
  store float %44, ptr %46, align 4, !tbaa !38
  %47 = load ptr, ptr %26, align 8, !tbaa !34
  %48 = getelementptr inbounds nuw float, ptr %47, i64 %indvars.iv31
  %49 = load float, ptr %48, align 4, !tbaa !38
  %50 = fpext float %49 to double
  %51 = fcmp ogt double %50, 0x39B64F86CB9CEFB1
  br i1 %51, label %52, label %.loopexit

52:                                               ; preds = %34
  %53 = fdiv float 1.000000e+00, %44
  store float %53, ptr %48, align 4, !tbaa !38
  %54 = load ptr, ptr %27, align 8, !tbaa !30
  %55 = getelementptr inbounds nuw %"class.gmx::BasicVector", ptr %54, i64 %indvars.iv31
  br label %56

56:                                               ; preds = %52, %62
  %indvars.iv = phi i64 [ 0, %52 ], [ %indvars.iv.next, %62 ]
  %57 = getelementptr inbounds nuw [3 x float], ptr %55, i64 0, i64 %indvars.iv
  %58 = load float, ptr %57, align 4, !tbaa !38
  %59 = fpext float %58 to double
  %60 = fcmp ogt double %59, 0x39B64F86CB9CEFB1
  br i1 %60, label %61, label %62

61:                                               ; preds = %56
  store float %53, ptr %57, align 4, !tbaa !38
  br label %62

62:                                               ; preds = %56, %61
  %indvars.iv.next = add nuw nsw i64 %indvars.iv, 1
  %exitcond.not = icmp eq i64 %indvars.iv.next, 3
  br i1 %exitcond.not, label %.loopexit, label %56, !llvm.loop !348

.loopexit:                                        ; preds = %62, %34, %30
  %indvars.iv.next32 = add nsw i64 %indvars.iv31, 1
  %lftr.wideiv = trunc i64 %indvars.iv.next32 to i32
  %exitcond34.not = icmp eq i32 %29, %lftr.wideiv
  br i1 %exitcond34.not, label %._crit_edge, label %30

._crit_edge:                                      ; preds = %.loopexit, %14
  call void @__kmpc_for_static_fini(ptr nonnull @1, i32 %16)
  call void @llvm.lifetime.end.p0(i64 4, ptr nonnull %9) #16
  call void @llvm.lifetime.end.p0(i64 4, ptr nonnull %8) #16
  call void @llvm.lifetime.end.p0(i64 4, ptr nonnull %7) #16
  call void @llvm.lifetime.end.p0(i64 4, ptr nonnull %6) #16
  br label %63

63:                                               ; preds = %._crit_edge, %5
  ret void
}